target datalayout = "e-m:e-p270:32:32-p271:32:32-p272:64:64-i64:64-i128:128-f80:128-n8:16:32:64-S128"
target triple = "x86_64-pc-linux-gnu"

%struct.pmix_object_t = type { %union.pthread_mutex_t, ptr, i32, %struct.pmix_tma }
%union.pthread_mutex_t = type { %struct.__pthread_mutex_s }
%struct.__pthread_mutex_s = type { i32, i32, i32, i32, i32, i16, i16, %struct.__pthread_internal_list }
%struct.__pthread_internal_list = type { ptr, ptr }
%struct.pmix_tma = type { ptr, ptr, ptr, ptr, ptr, ptr, ptr, ptr }
%struct.prte_pmix_lock_t = type { %struct.pmix_mutex_t, %union.pthread_cond_t, i8, i32, ptr }
%struct.pmix_mutex_t = type { %struct.pmix_object_t, %union.pthread_mutex_t }
%union.pthread_cond_t = type { %struct.__pthread_cond_s }
%struct.__pthread_cond_s = type { %union.__atomic_wide_counter, %union.__atomic_wide_counter, [2 x i32], [2 x i32], i32, i32, [2 x i32] }
%union.__atomic_wide_counter = type { i64 }
%struct.mylock_t = type { %struct.prte_pmix_lock_t, i32, ptr, i64 }

; Function Attrs: inlinehint nounwind uwtable
define internal void @pmix_mutex_unlock(ptr noundef %0) #3 {
  %2 = alloca ptr, align 8
  store ptr %0, ptr %2, align 8, !tbaa !206
  %3 = load ptr, ptr %2, align 8, !tbaa !206
  %4 = getelementptr inbounds nuw %struct.pmix_mutex_t, ptr %3, i32 0, i32 1
  %5 = call i32 @pthread_mutex_unlock(ptr noundef %4) #12
  ret void
}

; Function Attrs: inlinehint nounwind uwtable
define internal void @pmix_atomic_wmb() #3 {
  fence release
  ret void
}

; Function Attrs: inlinehint nounwind uwtable
define internal void @pmix_mutex_lock(ptr noundef %0) #3 {
  %2 = alloca ptr, align 8
  store ptr %0, ptr %2, align 8, !tbaa !206
  %3 = load ptr, ptr %2, align 8, !tbaa !206
  %4 = getelementptr inbounds nuw %struct.pmix_mutex_t, ptr %3, i32 0, i32 1
  %5 = call i32 @pthread_mutex_lock(ptr noundef %4) #12
  ret void
}

; Function Attrs: nounwind uwtable
define internal void @evhandler_reg_callbk(i32 noundef %0, i64 noundef %1, ptr noundef %2) #0 {
  %4 = alloca i32, align 4
  %5 = alloca i64, align 8
  %6 = alloca ptr, align 8
  %7 = alloca ptr, align 8
  store i32 %0, ptr %4, align 4, !tbaa !4
  store i64 %1, ptr %5, align 8, !tbaa !47
  store ptr %2, ptr %6, align 8, !tbaa !30
  call void @llvm.lifetime.start.p0(i64 8, ptr %7) #12
  %8 = load ptr, ptr %6, align 8, !tbaa !30
  store ptr %8, ptr %7, align 8, !tbaa !30
  %9 = load i32, ptr %4, align 4, !tbaa !4
  %10 = load ptr, ptr %7, align 8, !tbaa !30
  %11 = getelementptr inbounds nuw %struct.mylock_t, ptr %10, i32 0, i32 1
  store i32 %9, ptr %11, align 8, !tbaa !205
  br label %12

12:                                               ; preds = %3
  %13 = load ptr, ptr %7, align 8, !tbaa !30
  %14 = getelementptr inbounds nuw %struct.mylock_t, ptr %13, i32 0, i32 0
  %15 = getelementptr inbounds nuw %struct.prte_pmix_lock_t, ptr %14, i32 0, i32 0
  call void @pmix_mutex_lock(ptr noundef %15)
  %16 = load ptr, ptr %7, align 8, !tbaa !30
  %17 = getelementptr inbounds nuw %struct.mylock_t, ptr %16, i32 0, i32 0
  %18 = getelementptr inbounds nuw %struct.prte_pmix_lock_t, ptr %17, i32 0, i32 2
  store volatile i8 0, ptr %18, align 8, !tbaa !71
  call void @pmix_atomic_wmb()
  %19 = load ptr, ptr %7, align 8, !tbaa !30
  %20 = getelementptr inbounds nuw %struct.mylock_t, ptr %19, i32 0, i32 0
  %21 = getelementptr inbounds nuw %struct.prte_pmix_lock_t, ptr %20, i32 0, i32 1
  %22 = call i32 @pthread_cond_broadcast(ptr noundef %21) #12
  %23 = load ptr, ptr %7, align 8, !tbaa !30
  %24 = getelementptr inbounds nuw %struct.mylock_t, ptr %23, i32 0, i32 0
  %25 = getelementptr inbounds nuw %struct.prte_pmix_lock_t, ptr %24, i32 0, i32 0
  call void @pmix_mutex_unlock(ptr noundef %25)
  br label %26

26:                                               ; preds = %12
  br label %27

27:                                               ; preds = %26
  call void @llvm.lifetime.end.p0(i64 8, ptr %7) #12
  ret void
}