; Function Attrs: nounwind uwtable
define internal void @evhandler_reg_callbk(i32 noundef %0, i64 %1, ptr noundef initializes((224, 228)) %2) #0 {
  %4 = getelementptr inbounds nuw i8, ptr %2, i64 224
  store i32 %0, ptr %4, align 8, !tbaa !183
  %5 = getelementptr inbounds nuw i8, ptr %2, i64 120
  %6 = tail call i32 @pthread_mutex_lock(ptr noundef nonnull %5) #23
  %7 = getelementptr inbounds nuw i8, ptr %2, i64 208
  store volatile i8 0, ptr %7, align 8, !tbaa !75
  fence release
  %8 = getelementptr inbounds nuw i8, ptr %2, i64 160
  %9 = tail call i32 @pthread_cond_broadcast(ptr noundef nonnull %8) #23
  %10 = tail call i32 @pthread_mutex_unlock(ptr noundef nonnull %5) #23
  ret void
}